
build/raspios.elf:     file format elf64-littleaarch64

Sections:
Idx Name          Size      VMA               LMA               File off  Algn
  0 .text         000008ec  0000000000000000  0000000000000000  00010000  2**4
                  CONTENTS, ALLOC, LOAD, READONLY, CODE
  1 .rodata.str1.8 000000b8  00000000000008f0  00000000000008f0  000108f0  2**3
                  CONTENTS, ALLOC, LOAD, READONLY, DATA
  2 .data         00000018  00000000000009a8  00000000000009a8  000109a8  2**3
                  CONTENTS, ALLOC, LOAD, DATA
  3 .got          00000028  00000000000009c0  00000000000009c0  000109c0  2**3
                  CONTENTS, ALLOC, LOAD, DATA
  4 .got.plt      00000018  00000000000009e8  00000000000009e8  000109e8  2**3
                  CONTENTS, ALLOC, LOAD, DATA
  5 .bss          00000010  0000000000000a00  0000000000000a00  00010a00  2**3
                  ALLOC
  6 .debug_info   0000115a  0000000000000000  0000000000000000  00010a00  2**0
                  CONTENTS, READONLY, DEBUGGING
  7 .debug_abbrev 0000069b  0000000000000000  0000000000000000  00011b5a  2**0
                  CONTENTS, READONLY, DEBUGGING
  8 .debug_aranges 00000180  0000000000000000  0000000000000000  00012200  2**4
                  CONTENTS, READONLY, DEBUGGING
  9 .debug_macro  00000a54  0000000000000000  0000000000000000  00012380  2**0
                  CONTENTS, READONLY, DEBUGGING
 10 .debug_line   000009f9  0000000000000000  0000000000000000  00012dd4  2**0
                  CONTENTS, READONLY, DEBUGGING
 11 .debug_str    00003049  0000000000000000  0000000000000000  000137cd  2**0
                  CONTENTS, READONLY, DEBUGGING
 12 .comment      00000055  0000000000000000  0000000000000000  00016816  2**0
                  CONTENTS, READONLY
 13 .debug_frame  00000368  0000000000000000  0000000000000000  00016870  2**3
                  CONTENTS, READONLY, DEBUGGING
 14 .debug_loc    000013ad  0000000000000000  0000000000000000  00016bd8  2**0
                  CONTENTS, READONLY, DEBUGGING
 15 .debug_ranges 00000170  0000000000000000  0000000000000000  00017f85  2**0
                  CONTENTS, READONLY, DEBUGGING

Disassembly of section .text:

0000000000000000 <_boot_entry>:
.section ".text.boot"
.extern el1_setup

.globl _boot_entry
_boot_entry:
    mrs x0, mpidr_el1
   0:	d53800a0 	mrs	x0, mpidr_el1
    and x0, x0, #0xFF
   4:	92401c00 	and	x0, x0, #0xff
    cbnz x0, halt_proc
   8:	b50000e0 	cbnz	x0, 24 <halt_proc>

    /*Zero out bss section */
    adr x0, __bss_start
   c:	10004fa0 	adr	x0, a00 <__bss_start>
    adr x1, __bss_end
  10:	10005001 	adr	x1, a10 <__bss_end>
    sub x1, x1, x0
  14:	cb000021 	sub	x1, x1, x0
    bl   memzero
  18:	94000064 	bl	1a8 <memzero>

    bl el1_setup
  1c:	94000017 	bl	78 <el1_setup>
    b   kernel_main
  20:	14000004 	b	30 <kernel_main>

0000000000000024 <halt_proc>:

halt_proc:
    wfe
  24:	d503205f 	wfe
    b halt_proc
  28:	17ffffff 	b	24 <halt_proc>
  2c:	00000000 	.inst	0x00000000 ; undefined

0000000000000030 <kernel_main>:
#include "uart.h"
#include "printf.h"
#include "utils.h"

void kernel_main()
{
  30:	a9be7bfd 	stp	x29, x30, [sp, #-32]!
  34:	910003fd 	mov	x29, sp
  38:	f9000bf3 	str	x19, [sp, #16]
    uart_init();
  3c:	94000061 	bl	1c0 <uart_init>
    init_printf(0, putc);
  40:	90000001 	adrp	x1, 0 <_boot_entry>
  44:	d2800000 	mov	x0, #0x0                   	// #0
  48:	f944ec21 	ldr	x1, [x1, #2520]
  4c:	940001dd 	bl	7c0 <init_printf>
    printf("Core %d up at Exception level %d\n", get_core_id(), get_el());
  50:	94000220 	bl	8d0 <get_core_id>
  54:	2a0003f3 	mov	w19, w0
  58:	94000222 	bl	8e0 <get_el>
  5c:	2a0003e2 	mov	w2, w0
  60:	90000003 	adrp	x3, 0 <_boot_entry>
  64:	2a1303e1 	mov	w1, w19
  68:	9123c060 	add	x0, x3, #0x8f0
  6c:	940001dd 	bl	7e0 <tfp_printf>
    while(1){
        //if(uart_read_available()){
        //    uart_write('\n');
        //    uart_write(uart_read());
        //}
    }
  70:	14000000 	b	70 <kernel_main+0x40>
  74:	00000000 	.inst	0x00000000 ; undefined

0000000000000078 <el1_setup>:
#include <mem.h>
.section ".text"
.global el1_setup

el1_setup :
    ldr x0, =(SCTLR_EL1_EE_LITTLE | SCTLR_EL1_E0E_LITTLE |\
  78:	58000180 	ldr	x0, a8 <el1_setup+0x30>
           SCTLR_EL1_MMU_DIS | SCTLR_EL1_DCACHE_DIS | SCTLR_EL1_ICACHE_DIS |\
           SCTLR_EL1_STACK_ALIGN_CHK_EN | SCTLR_EL1_ALIGN_CHK_EN)
    msr SCTLR_EL1, x0
  7c:	d5181000 	msr	sctlr_el1, x0

    ldr x0, =(SCR_EL3_RW_AARCH64 | SCR_EL3_NS)
  80:	58000180 	ldr	x0, b0 <el1_setup+0x38>
    msr SCR_EL3, x0
  84:	d51e1100 	msr	scr_el3, x0

    ldr x0, =(HCR_EL2_RW_AARCH64)
  88:	58000180 	ldr	x0, b8 <el1_setup+0x40>
    msr HCR_EL2, x0 
  8c:	d51c1100 	msr	hcr_el2, x0

    /* Copy Link register to elr */
    msr ELR_EL3, lr
  90:	d51e403e 	msr	elr_el3, x30

   /* Setup EL1 status word */ 
    ldr x0, =(SPSR_MODE_EL1h | SPSR_MASK_EXCEPTIONS)
  94:	58000160 	ldr	x0, c0 <el1_setup+0x48>
    msr SPSR_EL3, x0
  98:	d51e4000 	msr	spsr_el3, x0

    /*As of now, we do not return to EL3. Overwrite stack of EL3 */
    ldr x0, =STACK_BASE
  9c:	58000160 	ldr	x0, c8 <el1_setup+0x50>
    msr SP_EL1, x0
  a0:	d51c4100 	msr	sp_el1, x0

    /* Go to EL1. Stack already uses EL1 SP */
    eret
  a4:	d69f03e0 	eret
  a8:	00000016 	.word	0x00000016
  ac:	00000000 	.word	0x00000000
  b0:	00000401 	.word	0x00000401
  b4:	00000000 	.word	0x00000000
  b8:	80000000 	.word	0x80000000
  bc:	00000000 	.word	0x00000000
  c0:	000001c5 	.word	0x000001c5
  c4:	00000000 	.word	0x00000000
  c8:	00800000 	.word	0x00800000
  cc:	00000000 	.word	0x00000000

00000000000000d0 <irq_handler>:
#include "printf.h"
void irq_handler(void) {
  d0:	a9bf7bfd 	stp	x29, x30, [sp, #-16]!
    printf("IRQ HANDLER\n");
  d4:	90000000 	adrp	x0, 0 <_boot_entry>
  d8:	91246000 	add	x0, x0, #0x918
void irq_handler(void) {
  dc:	910003fd 	mov	x29, sp
    printf("IRQ HANDLER\n");
  e0:	940001c0 	bl	7e0 <tfp_printf>
    while(1);
  e4:	14000000 	b	e4 <irq_handler+0x14>
  e8:	d503201f 	nop
  ec:	d503201f 	nop

00000000000000f0 <reset_handler>:
}

void __attribute__ ((interrupt ("ABORT"))) reset_handler(void) {
  f0:	a9bf7bfd 	stp	x29, x30, [sp, #-16]!
    printf("RESET HANDLER\n");
  f4:	90000000 	adrp	x0, 0 <_boot_entry>
  f8:	9124a000 	add	x0, x0, #0x928
void __attribute__ ((interrupt ("ABORT"))) reset_handler(void) {
  fc:	910003fd 	mov	x29, sp
    printf("RESET HANDLER\n");
 100:	940001b8 	bl	7e0 <tfp_printf>
    while(1);
 104:	14000000 	b	104 <reset_handler+0x14>
 108:	d503201f 	nop
 10c:	d503201f 	nop

0000000000000110 <prefetch_abort_handler>:
}
void __attribute__ ((interrupt ("ABORT"))) prefetch_abort_handler(void) {
 110:	a9bf7bfd 	stp	x29, x30, [sp, #-16]!
    printf("PREFETCH ABORT HANDLER\n");
 114:	90000000 	adrp	x0, 0 <_boot_entry>
 118:	9124e000 	add	x0, x0, #0x938
void __attribute__ ((interrupt ("ABORT"))) prefetch_abort_handler(void) {
 11c:	910003fd 	mov	x29, sp
    printf("PREFETCH ABORT HANDLER\n");
 120:	940001b0 	bl	7e0 <tfp_printf>
    while(1);
 124:	14000000 	b	124 <prefetch_abort_handler+0x14>
 128:	d503201f 	nop
 12c:	d503201f 	nop

0000000000000130 <data_abort_handler>:
}
void __attribute__ ((interrupt ("ABORT"))) data_abort_handler(void) {
 130:	a9bf7bfd 	stp	x29, x30, [sp, #-16]!
    printf("DATA ABORT HANDLER\n");
 134:	90000000 	adrp	x0, 0 <_boot_entry>
 138:	91254000 	add	x0, x0, #0x950
void __attribute__ ((interrupt ("ABORT"))) data_abort_handler(void) {
 13c:	910003fd 	mov	x29, sp
    printf("DATA ABORT HANDLER\n");
 140:	940001a8 	bl	7e0 <tfp_printf>
    while(1);
 144:	14000000 	b	144 <data_abort_handler+0x14>
 148:	d503201f 	nop
 14c:	d503201f 	nop

0000000000000150 <undefined_instruction_handler>:
}
void __attribute__ ((interrupt ("UNDEF"))) undefined_instruction_handler(void) {
 150:	a9bf7bfd 	stp	x29, x30, [sp, #-16]!
    printf("UNDEFINED INSTRUCTION HANDLER\n");
 154:	90000000 	adrp	x0, 0 <_boot_entry>
 158:	9125a000 	add	x0, x0, #0x968
void __attribute__ ((interrupt ("UNDEF"))) undefined_instruction_handler(void) {
 15c:	910003fd 	mov	x29, sp
    printf("UNDEFINED INSTRUCTION HANDLER\n");
 160:	940001a0 	bl	7e0 <tfp_printf>
    while(1);
 164:	14000000 	b	164 <undefined_instruction_handler+0x14>
 168:	d503201f 	nop
 16c:	d503201f 	nop

0000000000000170 <software_interrupt_handler>:
}
void __attribute__ ((interrupt ("SWI"))) software_interrupt_handler(void) {
 170:	a9bf7bfd 	stp	x29, x30, [sp, #-16]!
    printf("SWI HANDLER\n");
 174:	90000000 	adrp	x0, 0 <_boot_entry>
 178:	91262000 	add	x0, x0, #0x988
void __attribute__ ((interrupt ("SWI"))) software_interrupt_handler(void) {
 17c:	910003fd 	mov	x29, sp
    printf("SWI HANDLER\n");
 180:	94000198 	bl	7e0 <tfp_printf>
    while(1);
 184:	14000000 	b	184 <software_interrupt_handler+0x14>
 188:	d503201f 	nop
 18c:	d503201f 	nop

0000000000000190 <fast_irq_handler>:
}
void __attribute__ ((interrupt ("FIQ"))) fast_irq_handler(void) {
 190:	a9bf7bfd 	stp	x29, x30, [sp, #-16]!
    printf("FIQ HANDLER\n");
 194:	90000000 	adrp	x0, 0 <_boot_entry>
 198:	91266000 	add	x0, x0, #0x998
void __attribute__ ((interrupt ("FIQ"))) fast_irq_handler(void) {
 19c:	910003fd 	mov	x29, sp
    printf("FIQ HANDLER\n");
 1a0:	94000190 	bl	7e0 <tfp_printf>
    while(1);
 1a4:	14000000 	b	1a4 <fast_irq_handler+0x14>

00000000000001a8 <memzero>:
.globl memzero
memzero :
    str  xzr, [x0], #8
 1a8:	f800841f 	str	xzr, [x0], #8
    subs x1, x1, #8
 1ac:	f1002021 	subs	x1, x1, #0x8
    b.gt memzero
 1b0:	54ffffcc 	b.gt	1a8 <memzero>
    ret
 1b4:	d65f03c0 	ret
	...

00000000000001c0 <uart_init>:

reg32* AUX_ENABLES = (reg32*)(AUX_PERI_BASE + 0x4);
aux_mini_uart_regs_t* mini_uart = (aux_mini_uart_regs_t*) MINI_UART_BASE;
gpio_regs_t* gpio = (gpio_regs_t*) GPIO_BASE;

void uart_init(){
 1c0:	a9be7bfd 	stp	x29, x30, [sp, #-32]!
    /*Disable mini uart */
    *AUX_ENABLES = 0;
    /*Enable GPIO alternative fn as mini uart with no PD/PU*/
    gpio->GPFSEL2 = (0x010 << 12) | (0x010 << 15);
 1c4:	52a00122 	mov	w2, #0x90000               	// #589824
    gpio->GPPUD = 0;
    delay(150);
 1c8:	528012c0 	mov	w0, #0x96                  	// #150
void uart_init(){
 1cc:	910003fd 	mov	x29, sp
 1d0:	a90153f3 	stp	x19, x20, [sp, #16]
    *AUX_ENABLES = 0;
 1d4:	90000014 	adrp	x20, 0 <_boot_entry>
    gpio->GPFSEL2 = (0x010 << 12) | (0x010 << 15);
 1d8:	90000013 	adrp	x19, 0 <_boot_entry>
    *AUX_ENABLES = 0;
 1dc:	f944e694 	ldr	x20, [x20, #2504]
    gpio->GPFSEL2 = (0x010 << 12) | (0x010 << 15);
 1e0:	f944f273 	ldr	x19, [x19, #2528]
    *AUX_ENABLES = 0;
 1e4:	f9400283 	ldr	x3, [x20]
    gpio->GPFSEL2 = (0x010 << 12) | (0x010 << 15);
 1e8:	f9400261 	ldr	x1, [x19]
    *AUX_ENABLES = 0;
 1ec:	b900007f 	str	wzr, [x3]
    gpio->GPFSEL2 = (0x010 << 12) | (0x010 << 15);
 1f0:	b9000422 	str	w2, [x1, #4]
    gpio->GPPUD = 0;
 1f4:	b900903f 	str	wzr, [x1, #144]
    delay(150);
 1f8:	940001b2 	bl	8c0 <delay>
    gpio->GPPUDCLK0 = (1 << 14) | (1 << 15); 
 1fc:	f9400261 	ldr	x1, [x19]
 200:	52980002 	mov	w2, #0xc000                	// #49152
    delay(150);
 204:	528012c0 	mov	w0, #0x96                  	// #150
    gpio->GPPUDCLK0 = (1 << 14) | (1 << 15); 
 208:	b9009422 	str	w2, [x1, #148]
    delay(150);
 20c:	940001ad 	bl	8c0 <delay>
    gpio->GPPUDCLK0 = 0; 
    /*Counfigure uart */
    /*Disable interrupts */
    mini_uart->AUX_MU_IER_REG = mini_uart->AUX_MU_IER_REG & ~(uint32)0x3;
 210:	90000000 	adrp	x0, 0 <_boot_entry>
    /*Clear FIFOs */
    mini_uart->AUX_MU_IIR_REG = 0x3 << 1; 
 214:	528000c5 	mov	w5, #0x6                   	// #6
    gpio->GPPUDCLK0 = 0; 
 218:	f9400261 	ldr	x1, [x19]
    /*Set baud rate to 115200 */
    mini_uart->AUX_MU_BAUD_REG = 271;
 21c:	528021e2 	mov	w2, #0x10f                 	// #271
    mini_uart->AUX_MU_IER_REG = mini_uart->AUX_MU_IER_REG & ~(uint32)0x3;
 220:	f944e800 	ldr	x0, [x0, #2512]
    *(reg32*)0x3f215068 = 271;
 224:	d28a0d04 	mov	x4, #0x5068                	// #20584
 228:	f2a7e424 	movk	x4, #0x3f21, lsl #16
    gpio->GPPUDCLK0 = 0; 
 22c:	b900943f 	str	wzr, [x1, #148]
    /*Enable mini uart */
    *AUX_ENABLES = 1;
 230:	52800023 	mov	w3, #0x1                   	// #1
    mini_uart->AUX_MU_IER_REG = mini_uart->AUX_MU_IER_REG & ~(uint32)0x3;
 234:	f9400000 	ldr	x0, [x0]
 238:	b9400401 	ldr	w1, [x0, #4]
 23c:	121e7421 	and	w1, w1, #0xfffffffc
 240:	b9000401 	str	w1, [x0, #4]
    mini_uart->AUX_MU_IIR_REG = 0x3 << 1; 
 244:	b9000805 	str	w5, [x0, #8]
    mini_uart->AUX_MU_BAUD_REG = 271;
 248:	b9002802 	str	w2, [x0, #40]
    *AUX_ENABLES = 1;
 24c:	f9400280 	ldr	x0, [x20]
}
 250:	a94153f3 	ldp	x19, x20, [sp, #16]
    *(reg32*)0x3f215068 = 271;
 254:	b9000082 	str	w2, [x4]
    *AUX_ENABLES = 1;
 258:	b9000003 	str	w3, [x0]
}
 25c:	a8c27bfd 	ldp	x29, x30, [sp], #32
 260:	d65f03c0 	ret
 264:	d503201f 	nop
 268:	d503201f 	nop
 26c:	d503201f 	nop

0000000000000270 <uart_read_available>:

uint8 uart_read_available(){
    return mini_uart->AUX_MU_LSR_REG & 0x1;
 270:	90000000 	adrp	x0, 0 <_boot_entry>
 274:	f944e800 	ldr	x0, [x0, #2512]
 278:	f9400000 	ldr	x0, [x0]
 27c:	b9401400 	ldr	w0, [x0, #20]
}
 280:	12000000 	and	w0, w0, #0x1
 284:	d65f03c0 	ret
 288:	d503201f 	nop
 28c:	d503201f 	nop

0000000000000290 <uart_read>:

uint8 uart_read(){
    uint8 data = mini_uart->AUX_MU_IO_REG & 0xFF;
 290:	90000000 	adrp	x0, 0 <_boot_entry>
 294:	f944e800 	ldr	x0, [x0, #2512]
 298:	f9400000 	ldr	x0, [x0]
 29c:	b9400000 	ldr	w0, [x0]
    return data;
}
 2a0:	d65f03c0 	ret
 2a4:	d503201f 	nop
 2a8:	d503201f 	nop
 2ac:	d503201f 	nop

00000000000002b0 <uart_write>:

void uart_write(uint8 data){
    mini_uart->AUX_MU_IO_REG = data;
 2b0:	90000001 	adrp	x1, 0 <_boot_entry>
void uart_write(uint8 data){
 2b4:	12001c00 	and	w0, w0, #0xff
    mini_uart->AUX_MU_IO_REG = data;
 2b8:	f944e821 	ldr	x1, [x1, #2512]
 2bc:	f9400021 	ldr	x1, [x1]
 2c0:	b9000020 	str	w0, [x1]
}
 2c4:	d65f03c0 	ret
 2c8:	d503201f 	nop
 2cc:	d503201f 	nop

00000000000002d0 <putc>:

void putc(char *p, char data){
    uart_write(data);
 2d0:	2a0103e0 	mov	w0, w1
 2d4:	17fffff7 	b	2b0 <uart_write>
	...

00000000000002e0 <ui2a>:

static void ui2a(unsigned int num, unsigned int base, int uc,char * bf)
    {
    int n=0;
    unsigned int d=1;
    while (num/d >= base)
 2e0:	6b01001f 	cmp	w0, w1
 2e4:	54000503 	b.cc	384 <ui2a+0xa4>  // b.lo, b.ul, b.last
    unsigned int d=1;
 2e8:	52800024 	mov	w4, #0x1                   	// #1
 2ec:	d503201f 	nop
        d*=base;
 2f0:	1b017c84 	mul	w4, w4, w1
    while (num/d >= base)
 2f4:	1ac40805 	udiv	w5, w0, w4
 2f8:	6b0100bf 	cmp	w5, w1
 2fc:	54ffffa2 	b.cs	2f0 <ui2a+0x10>  // b.hs, b.nlast
    while (d!=0) {
 300:	340003c4 	cbz	w4, 378 <ui2a+0x98>
        int dgt = num / d;
        num%= d;
        d/=base;
        if (n || dgt>0 || d==0) {
            *bf++ = dgt+(dgt<10 ? '0' : (uc ? 'A' : 'a')-10);
 304:	52800008 	mov	w8, #0x0                   	// #0
 308:	528006eb 	mov	w11, #0x37                  	// #55
 30c:	52800aea 	mov	w10, #0x57                  	// #87
 310:	14000007 	b	32c <ui2a+0x4c>
        if (n || dgt>0 || d==0) {
 314:	6b04003f 	cmp	w1, w4
            *bf++ = dgt+(dgt<10 ? '0' : (uc ? 'A' : 'a')-10);
 318:	52800606 	mov	w6, #0x30                  	// #48
        if (n || dgt>0 || d==0) {
 31c:	540001e8 	b.hi	358 <ui2a+0x78>  // b.pmore
 320:	52800008 	mov	w8, #0x0                   	// #0
 324:	1ac90805 	udiv	w5, w0, w9
            *bf++ = dgt+(dgt<10 ? '0' : (uc ? 'A' : 'a')-10);
 328:	2a0903e4 	mov	w4, w9
        if (n || dgt>0 || d==0) {
 32c:	7100011f 	cmp	w8, #0x0
            *bf++ = dgt+(dgt<10 ? '0' : (uc ? 'A' : 'a')-10);
 330:	aa0303e7 	mov	x7, x3
        if (n || dgt>0 || d==0) {
 334:	7a4008a0 	ccmp	w5, #0x0, #0x0, eq  // eq = none
        num%= d;
 338:	1b0480a0 	msub	w0, w5, w4, w0
        d/=base;
 33c:	1ac10889 	udiv	w9, w4, w1
        if (n || dgt>0 || d==0) {
 340:	54fffead 	b.le	314 <ui2a+0x34>
            *bf++ = dgt+(dgt<10 ? '0' : (uc ? 'A' : 'a')-10);
 344:	710024bf 	cmp	w5, #0x9
 348:	52800606 	mov	w6, #0x30                  	// #48
 34c:	5400006d 	b.le	358 <ui2a+0x78>
 350:	7100005f 	cmp	w2, #0x0
 354:	1a8a1166 	csel	w6, w11, w10, ne  // ne = any
 358:	0b0500c5 	add	w5, w6, w5
 35c:	380014e5 	strb	w5, [x7], #1
            ++n;
 360:	11000508 	add	w8, w8, #0x1
    while (d!=0) {
 364:	6b04003f 	cmp	w1, w4
            *bf++ = dgt+(dgt<10 ? '0' : (uc ? 'A' : 'a')-10);
 368:	aa0703e3 	mov	x3, x7
    while (d!=0) {
 36c:	54fffdc9 	b.ls	324 <ui2a+0x44>  // b.plast
            }
        }
    *bf=0;
 370:	390000ff 	strb	wzr, [x7]
    }
 374:	d65f03c0 	ret
    while (d!=0) {
 378:	aa0303e7 	mov	x7, x3
    *bf=0;
 37c:	390000ff 	strb	wzr, [x7]
    }
 380:	d65f03c0 	ret
 384:	2a0003e5 	mov	w5, w0
    unsigned int d=1;
 388:	52800024 	mov	w4, #0x1                   	// #1
 38c:	17ffffde 	b	304 <ui2a+0x24>

0000000000000390 <putcp>:
    va_end(va);
    }

static void putcp(void* p,char c)
    {
    *(*((char**)p))++ = c;
 390:	f9400002 	ldr	x2, [x0]
 394:	91000443 	add	x3, x2, #0x1
 398:	f9000003 	str	x3, [x0]
 39c:	39000041 	strb	w1, [x2]
    }
 3a0:	d65f03c0 	ret
 3a4:	d503201f 	nop
 3a8:	d503201f 	nop
 3ac:	d503201f 	nop

00000000000003b0 <putchw>:
    {
 3b0:	a9bc7bfd 	stp	x29, x30, [sp, #-64]!
    char fc=z? '0' : ' ';
 3b4:	72001c7f 	tst	w3, #0xff
    {
 3b8:	910003fd 	mov	x29, sp
 3bc:	a90153f3 	stp	x19, x20, [sp, #16]
    while (*p++ && n > 0)
 3c0:	aa0403f4 	mov	x20, x4
    {
 3c4:	a9025bf5 	stp	x21, x22, [sp, #32]
 3c8:	aa0103f6 	mov	x22, x1
 3cc:	aa0003f5 	mov	x21, x0
 3d0:	a90363f7 	stp	x23, x24, [sp, #48]
    char fc=z? '0' : ' ';
 3d4:	52800400 	mov	w0, #0x20                  	// #32
 3d8:	52800617 	mov	w23, #0x30                  	// #48
    while (*p++ && n > 0)
 3dc:	38401681 	ldrb	w1, [x20], #1
    char fc=z? '0' : ' ';
 3e0:	1a8012f7 	csel	w23, w23, w0, ne  // ne = any
    {
 3e4:	aa0403f8 	mov	x24, x4
    while (*p++ && n > 0)
 3e8:	7100005f 	cmp	w2, #0x0
 3ec:	34000401 	cbz	w1, 46c <putchw+0xbc>
 3f0:	540002cd 	b.le	448 <putchw+0x98>
 3f4:	aa1403e0 	mov	x0, x20
 3f8:	14000003 	b	404 <putchw+0x54>
 3fc:	2a0403e2 	mov	w2, w4
 400:	34000244 	cbz	w4, 448 <putchw+0x98>
 404:	39400003 	ldrb	w3, [x0]
        n--;
 408:	51000444 	sub	w4, w2, #0x1
 40c:	91000400 	add	x0, x0, #0x1
    while (*p++ && n > 0)
 410:	35ffff63 	cbnz	w3, 3fc <putchw+0x4c>
    while (n-- > 0)
 414:	51000853 	sub	w19, w2, #0x2
 418:	34000184 	cbz	w4, 448 <putchw+0x98>
 41c:	d503201f 	nop
        putf(putp,fc);
 420:	aa1503e0 	mov	x0, x21
 424:	2a1703e1 	mov	w1, w23
 428:	d63f02c0 	blr	x22
    while (n-- > 0)
 42c:	51000660 	sub	w0, w19, #0x1
 430:	7100027f 	cmp	w19, #0x0
 434:	2a0003f3 	mov	w19, w0
 438:	54ffff4c 	b.gt	420 <putchw+0x70>
    while ((ch= *bf++))
 43c:	39400301 	ldrb	w1, [x24]
 440:	340000c1 	cbz	w1, 458 <putchw+0xa8>
 444:	d503201f 	nop
        putf(putp,ch);
 448:	aa1503e0 	mov	x0, x21
 44c:	d63f02c0 	blr	x22
    while ((ch= *bf++))
 450:	38401681 	ldrb	w1, [x20], #1
 454:	35ffffa1 	cbnz	w1, 448 <putchw+0x98>
    }
 458:	a94153f3 	ldp	x19, x20, [sp, #16]
 45c:	a9425bf5 	ldp	x21, x22, [sp, #32]
 460:	a94363f7 	ldp	x23, x24, [sp, #48]
 464:	a8c47bfd 	ldp	x29, x30, [sp], #64
 468:	d65f03c0 	ret
    while (n-- > 0)
 46c:	51000453 	sub	w19, w2, #0x1
 470:	54fffd8c 	b.gt	420 <putchw+0x70>
 474:	17fffff9 	b	458 <putchw+0xa8>
 478:	d503201f 	nop
 47c:	d503201f 	nop

0000000000000480 <tfp_format>:
    {
 480:	a9b97bfd 	stp	x29, x30, [sp, #-112]!
 484:	910003fd 	mov	x29, sp
 488:	a90363f7 	stp	x23, x24, [sp, #48]
                    ui2a(va_arg(va, unsigned int),16,(ch=='X'),bf);
 48c:	910183f8 	add	x24, sp, #0x60
 490:	b9401877 	ldr	w23, [x3, #24]
    {
 494:	a90153f3 	stp	x19, x20, [sp, #16]
 498:	aa0103f4 	mov	x20, x1
                    ui2a(va_arg(va, unsigned int),10,0,bf);
 49c:	52800153 	mov	w19, #0xa                   	// #10
    {
 4a0:	a9025bf5 	stp	x21, x22, [sp, #32]
 4a4:	aa0003f5 	mov	x21, x0
 4a8:	a9046bf9 	stp	x25, x26, [sp, #64]
        *bf++ = '-';
 4ac:	9100071a 	add	x26, x24, #0x1
 4b0:	a9406476 	ldp	x22, x25, [x3]
    {
 4b4:	f9002bfb 	str	x27, [sp, #80]
 4b8:	aa0203fb 	mov	x27, x2
 4bc:	d503201f 	nop
    while ((ch=*(fmt++))) {
 4c0:	39400361 	ldrb	w1, [x27]
 4c4:	34000101 	cbz	w1, 4e4 <tfp_format+0x64>
        if (ch!='%')
 4c8:	7100943f 	cmp	w1, #0x25
 4cc:	540001a0 	b.eq	500 <tfp_format+0x80>  // b.none
    while ((ch=*(fmt++))) {
 4d0:	9100077b 	add	x27, x27, #0x1
            putf(putp,ch);
 4d4:	aa1503e0 	mov	x0, x21
 4d8:	d63f0280 	blr	x20
    while ((ch=*(fmt++))) {
 4dc:	39400361 	ldrb	w1, [x27]
 4e0:	35ffff41 	cbnz	w1, 4c8 <tfp_format+0x48>
    }
 4e4:	a94153f3 	ldp	x19, x20, [sp, #16]
 4e8:	a9425bf5 	ldp	x21, x22, [sp, #32]
 4ec:	a94363f7 	ldp	x23, x24, [sp, #48]
 4f0:	a9446bf9 	ldp	x25, x26, [sp, #64]
 4f4:	f9402bfb 	ldr	x27, [sp, #80]
 4f8:	a8c77bfd 	ldp	x29, x30, [sp], #112
 4fc:	d65f03c0 	ret
            ch=*(fmt++);
 500:	39400761 	ldrb	w1, [x27, #1]
            if (ch=='0') {
 504:	7100c03f 	cmp	w1, #0x30
 508:	54000b60 	b.eq	674 <tfp_format+0x1f4>  // b.none
            ch=*(fmt++);
 50c:	91000b7b 	add	x27, x27, #0x2
            char lz=0;
 510:	5280000d 	mov	w13, #0x0                   	// #0
            if (ch>='0' && ch<='9') {
 514:	5100c025 	sub	w5, w1, #0x30
    int num=0;
 518:	5280000c 	mov	w12, #0x0                   	// #0
            if (ch>='0' && ch<='9') {
 51c:	12001ca0 	and	w0, w5, #0xff
 520:	7100241f 	cmp	w0, #0x9
 524:	54000369 	b.ls	590 <tfp_format+0x110>  // b.plast
            switch (ch) {
 528:	71018c3f 	cmp	w1, #0x63
 52c:	54000c20 	b.eq	6b0 <tfp_format+0x230>  // b.none
 530:	54000869 	b.ls	63c <tfp_format+0x1bc>  // b.plast
 534:	7101cc3f 	cmp	w1, #0x73
 538:	54000a60 	b.eq	684 <tfp_format+0x204>  // b.none
 53c:	54000649 	b.ls	604 <tfp_format+0x184>  // b.plast
 540:	7101d43f 	cmp	w1, #0x75
 544:	540003a1 	b.ne	5b8 <tfp_format+0x138>  // b.any
                    ui2a(va_arg(va, unsigned int),10,0,bf);
 548:	37f80cb7 	tbnz	w23, #31, 6dc <tfp_format+0x25c>
 54c:	91002ec1 	add	x1, x22, #0xb
 550:	aa1603e0 	mov	x0, x22
 554:	927df036 	and	x22, x1, #0xfffffffffffffff8
 558:	b9400000 	ldr	w0, [x0]
 55c:	aa1803e3 	mov	x3, x24
    ui2a(num,10,0,bf);
 560:	52800002 	mov	w2, #0x0                   	// #0
 564:	52800141 	mov	w1, #0xa                   	// #10
 568:	1400001f 	b	5e4 <tfp_format+0x164>
    else if (ch>='a' && ch<='f')
 56c:	7100141f 	cmp	w0, #0x5
 570:	540007e9 	b.ls	66c <tfp_format+0x1ec>  // b.plast
    else if (ch>='A' && ch<='F')
 574:	7100145f 	cmp	w2, #0x5
 578:	54fffd88 	b.hi	528 <tfp_format+0xa8>  // b.pmore
        if (digit>base) break;
 57c:	7100289f 	cmp	w4, #0xa
 580:	54fffd41 	b.ne	528 <tfp_format+0xa8>  // b.any
        ch=*p++;
 584:	38401761 	ldrb	w1, [x27], #1
        num=num*base+digit;
 588:	1b13118c 	madd	w12, w12, w19, w4
        ch=*p++;
 58c:	5100c025 	sub	w5, w1, #0x30
    else if (ch>='a' && ch<='f')
 590:	51018420 	sub	w0, w1, #0x61
    else if (ch>='A' && ch<='F')
 594:	51010422 	sub	w2, w1, #0x41
    if (ch>='0' && ch<='9')
 598:	12001ca3 	and	w3, w5, #0xff
        return ch-'A'+10;
 59c:	5100dc24 	sub	w4, w1, #0x37
    else if (ch>='a' && ch<='f')
 5a0:	12001c00 	and	w0, w0, #0xff
    else if (ch>='A' && ch<='F')
 5a4:	12001c42 	and	w2, w2, #0xff
    if (ch>='0' && ch<='9')
 5a8:	7100247f 	cmp	w3, #0x9
 5ac:	54fffe08 	b.hi	56c <tfp_format+0xec>  // b.pmore
        return ch-'0';
 5b0:	2a0503e4 	mov	w4, w5
        if (digit>base) break;
 5b4:	17fffff4 	b	584 <tfp_format+0x104>
            switch (ch) {
 5b8:	7101e03f 	cmp	w1, #0x78
 5bc:	54fff821 	b.ne	4c0 <tfp_format+0x40>  // b.any
                    ui2a(va_arg(va, unsigned int),16,(ch=='X'),bf);
 5c0:	37f80bf7 	tbnz	w23, #31, 73c <tfp_format+0x2bc>
 5c4:	91002ec2 	add	x2, x22, #0xb
 5c8:	aa1603e0 	mov	x0, x22
 5cc:	927df056 	and	x22, x2, #0xfffffffffffffff8
 5d0:	7101603f 	cmp	w1, #0x58
 5d4:	b9400000 	ldr	w0, [x0]
 5d8:	1a9f17e2 	cset	w2, eq  // eq = none
 5dc:	aa1803e3 	mov	x3, x24
 5e0:	52800201 	mov	w1, #0x10                  	// #16
 5e4:	97ffff3f 	bl	2e0 <ui2a>
                    putchw(putp,putf,w,lz,bf);
 5e8:	2a0d03e3 	mov	w3, w13
 5ec:	aa1803e4 	mov	x4, x24
 5f0:	2a0c03e2 	mov	w2, w12
 5f4:	aa1403e1 	mov	x1, x20
 5f8:	aa1503e0 	mov	x0, x21
 5fc:	97ffff6d 	bl	3b0 <putchw>
                    break;
 600:	17ffffb0 	b	4c0 <tfp_format+0x40>
            switch (ch) {
 604:	7101903f 	cmp	w1, #0x64
 608:	54fff5c1 	b.ne	4c0 <tfp_format+0x40>  // b.any
                    i2a(va_arg(va, int),bf);
 60c:	37f80797 	tbnz	w23, #31, 6fc <tfp_format+0x27c>
 610:	91002ec1 	add	x1, x22, #0xb
 614:	aa1603e0 	mov	x0, x22
 618:	927df036 	and	x22, x1, #0xfffffffffffffff8
 61c:	b9400000 	ldr	w0, [x0]
    if (num<0) {
 620:	aa1803e3 	mov	x3, x24
 624:	36fff9e0 	tbz	w0, #31, 560 <tfp_format+0xe0>
        *bf++ = '-';
 628:	528005a1 	mov	w1, #0x2d                  	// #45
        num=-num;
 62c:	4b0003e0 	neg	w0, w0
        *bf++ = '-';
 630:	aa1a03e3 	mov	x3, x26
 634:	390183e1 	strb	w1, [sp, #96]
 638:	17ffffca 	b	560 <tfp_format+0xe0>
            switch (ch) {
 63c:	7100943f 	cmp	w1, #0x25
 640:	54000480 	b.eq	6d0 <tfp_format+0x250>  // b.none
 644:	7101603f 	cmp	w1, #0x58
 648:	54fffbc0 	b.eq	5c0 <tfp_format+0x140>  // b.none
 64c:	35fff3a1 	cbnz	w1, 4c0 <tfp_format+0x40>
    }
 650:	a94153f3 	ldp	x19, x20, [sp, #16]
 654:	a9425bf5 	ldp	x21, x22, [sp, #32]
 658:	a94363f7 	ldp	x23, x24, [sp, #48]
 65c:	a9446bf9 	ldp	x25, x26, [sp, #64]
 660:	f9402bfb 	ldr	x27, [sp, #80]
 664:	a8c77bfd 	ldp	x29, x30, [sp], #112
 668:	d65f03c0 	ret
        return ch-'a'+10;
 66c:	51015c24 	sub	w4, w1, #0x57
 670:	17ffffc3 	b	57c <tfp_format+0xfc>
                ch=*(fmt++);
 674:	39400b61 	ldrb	w1, [x27, #2]
                lz=1;
 678:	5280002d 	mov	w13, #0x1                   	// #1
                ch=*(fmt++);
 67c:	91000f7b 	add	x27, x27, #0x3
 680:	17ffffa5 	b	514 <tfp_format+0x94>
                    putchw(putp,putf,w,0,va_arg(va, char*));
 684:	37f806d7 	tbnz	w23, #31, 75c <tfp_format+0x2dc>
 688:	91003ec1 	add	x1, x22, #0xf
 68c:	aa1603e0 	mov	x0, x22
 690:	927df036 	and	x22, x1, #0xfffffffffffffff8
 694:	f9400004 	ldr	x4, [x0]
 698:	2a0c03e2 	mov	w2, w12
 69c:	52800003 	mov	w3, #0x0                   	// #0
 6a0:	aa1403e1 	mov	x1, x20
 6a4:	aa1503e0 	mov	x0, x21
 6a8:	97ffff42 	bl	3b0 <putchw>
                    break;
 6ac:	17ffff85 	b	4c0 <tfp_format+0x40>
                    putf(putp,(char)(va_arg(va, int)));
 6b0:	37f80377 	tbnz	w23, #31, 71c <tfp_format+0x29c>
 6b4:	91002ec1 	add	x1, x22, #0xb
 6b8:	aa1603e0 	mov	x0, x22
 6bc:	927df036 	and	x22, x1, #0xfffffffffffffff8
 6c0:	39400001 	ldrb	w1, [x0]
 6c4:	aa1503e0 	mov	x0, x21
 6c8:	d63f0280 	blr	x20
                    break;
 6cc:	17ffff7d 	b	4c0 <tfp_format+0x40>
                    putf(putp,ch);
 6d0:	aa1503e0 	mov	x0, x21
 6d4:	d63f0280 	blr	x20
 6d8:	17ffff7a 	b	4c0 <tfp_format+0x40>
                    ui2a(va_arg(va, unsigned int),10,0,bf);
 6dc:	110022e1 	add	w1, w23, #0x8
 6e0:	7100003f 	cmp	w1, #0x0
 6e4:	540004cd 	b.le	77c <tfp_format+0x2fc>
 6e8:	91002ec2 	add	x2, x22, #0xb
 6ec:	aa1603e0 	mov	x0, x22
 6f0:	2a0103f7 	mov	w23, w1
 6f4:	927df056 	and	x22, x2, #0xfffffffffffffff8
 6f8:	17ffff98 	b	558 <tfp_format+0xd8>
                    i2a(va_arg(va, int),bf);
 6fc:	110022e1 	add	w1, w23, #0x8
 700:	7100003f 	cmp	w1, #0x0
 704:	5400042d 	b.le	788 <tfp_format+0x308>
 708:	91002ec2 	add	x2, x22, #0xb
 70c:	aa1603e0 	mov	x0, x22
 710:	2a0103f7 	mov	w23, w1
 714:	927df056 	and	x22, x2, #0xfffffffffffffff8
 718:	17ffffc1 	b	61c <tfp_format+0x19c>
                    putf(putp,(char)(va_arg(va, int)));
 71c:	110022e1 	add	w1, w23, #0x8
 720:	7100003f 	cmp	w1, #0x0
 724:	540003ed 	b.le	7a0 <tfp_format+0x320>
 728:	91002ec2 	add	x2, x22, #0xb
 72c:	aa1603e0 	mov	x0, x22
 730:	2a0103f7 	mov	w23, w1
 734:	927df056 	and	x22, x2, #0xfffffffffffffff8
 738:	17ffffe2 	b	6c0 <tfp_format+0x240>
                    ui2a(va_arg(va, unsigned int),16,(ch=='X'),bf);
 73c:	110022e2 	add	w2, w23, #0x8
 740:	7100005f 	cmp	w2, #0x0
 744:	5400028d 	b.le	794 <tfp_format+0x314>
 748:	91002ec3 	add	x3, x22, #0xb
 74c:	aa1603e0 	mov	x0, x22
 750:	2a0203f7 	mov	w23, w2
 754:	927df076 	and	x22, x3, #0xfffffffffffffff8
 758:	17ffff9e 	b	5d0 <tfp_format+0x150>
                    putchw(putp,putf,w,0,va_arg(va, char*));
 75c:	110022e1 	add	w1, w23, #0x8
 760:	7100003f 	cmp	w1, #0x0
 764:	5400024d 	b.le	7ac <tfp_format+0x32c>
 768:	91003ec2 	add	x2, x22, #0xf
 76c:	aa1603e0 	mov	x0, x22
 770:	2a0103f7 	mov	w23, w1
 774:	927df056 	and	x22, x2, #0xfffffffffffffff8
 778:	17ffffc7 	b	694 <tfp_format+0x214>
                    ui2a(va_arg(va, unsigned int),10,0,bf);
 77c:	8b37c320 	add	x0, x25, w23, sxtw
 780:	2a0103f7 	mov	w23, w1
 784:	17ffff75 	b	558 <tfp_format+0xd8>
                    i2a(va_arg(va, int),bf);
 788:	8b37c320 	add	x0, x25, w23, sxtw
 78c:	2a0103f7 	mov	w23, w1
 790:	17ffffa3 	b	61c <tfp_format+0x19c>
                    ui2a(va_arg(va, unsigned int),16,(ch=='X'),bf);
 794:	8b37c320 	add	x0, x25, w23, sxtw
 798:	2a0203f7 	mov	w23, w2
 79c:	17ffff8d 	b	5d0 <tfp_format+0x150>
                    putf(putp,(char)(va_arg(va, int)));
 7a0:	8b37c320 	add	x0, x25, w23, sxtw
 7a4:	2a0103f7 	mov	w23, w1
 7a8:	17ffffc6 	b	6c0 <tfp_format+0x240>
                    putchw(putp,putf,w,0,va_arg(va, char*));
 7ac:	8b37c320 	add	x0, x25, w23, sxtw
 7b0:	2a0103f7 	mov	w23, w1
 7b4:	17ffffb8 	b	694 <tfp_format+0x214>
 7b8:	d503201f 	nop
 7bc:	d503201f 	nop

00000000000007c0 <init_printf>:
    stdout_putf=putf;
 7c0:	90000002 	adrp	x2, 0 <_boot_entry>
 7c4:	91280043 	add	x3, x2, #0xa00
 7c8:	f9050041 	str	x1, [x2, #2560]
    stdout_putp=putp;
 7cc:	f9000460 	str	x0, [x3, #8]
    }
 7d0:	d65f03c0 	ret
 7d4:	d503201f 	nop
 7d8:	d503201f 	nop
 7dc:	d503201f 	nop

00000000000007e0 <tfp_printf>:
    {
 7e0:	a9b77bfd 	stp	x29, x30, [sp, #-144]!
    tfp_format(stdout_putp,stdout_putf,fmt,va);
 7e4:	90000008 	adrp	x8, 0 <_boot_entry>
 7e8:	9128010a 	add	x10, x8, #0xa00
    {
 7ec:	910003fd 	mov	x29, sp
 7f0:	a9058be1 	stp	x1, x2, [sp, #88]
    tfp_format(stdout_putp,stdout_putf,fmt,va);
 7f4:	aa0003e2 	mov	x2, x0
    va_start(va,fmt);
 7f8:	910143e9 	add	x9, sp, #0x50
    tfp_format(stdout_putp,stdout_putf,fmt,va);
 7fc:	f9400540 	ldr	x0, [x10, #8]
    va_start(va,fmt);
 800:	910243ea 	add	x10, sp, #0x90
 804:	a9032bea 	stp	x10, x10, [sp, #48]
    tfp_format(stdout_putp,stdout_putf,fmt,va);
 808:	f9450101 	ldr	x1, [x8, #2560]
    va_start(va,fmt);
 80c:	128006e8 	mov	w8, #0xffffffc8            	// #-56
 810:	f90023e9 	str	x9, [sp, #64]
 814:	b9004be8 	str	w8, [sp, #72]
 818:	b9004fff 	str	wzr, [sp, #76]
    tfp_format(stdout_putp,stdout_putf,fmt,va);
 81c:	a94327e8 	ldp	x8, x9, [sp, #48]
 820:	a90127e8 	stp	x8, x9, [sp, #16]
 824:	a94427e8 	ldp	x8, x9, [sp, #64]
 828:	a90227e8 	stp	x8, x9, [sp, #32]
    {
 82c:	a90693e3 	stp	x3, x4, [sp, #104]
    tfp_format(stdout_putp,stdout_putf,fmt,va);
 830:	910043e3 	add	x3, sp, #0x10
    {
 834:	a9079be5 	stp	x5, x6, [sp, #120]
 838:	f90047e7 	str	x7, [sp, #136]
    tfp_format(stdout_putp,stdout_putf,fmt,va);
 83c:	97ffff11 	bl	480 <tfp_format>
    }
 840:	a8c97bfd 	ldp	x29, x30, [sp], #144
 844:	d65f03c0 	ret
 848:	d503201f 	nop
 84c:	d503201f 	nop

0000000000000850 <tfp_sprintf>:



void tfp_sprintf(char* s,char *fmt, ...)
    {
 850:	a9b77bfd 	stp	x29, x30, [sp, #-144]!
    va_list va;
    va_start(va,fmt);
 854:	128005e9 	mov	w9, #0xffffffd0            	// #-48
    {
 858:	910003fd 	mov	x29, sp
    va_start(va,fmt);
 85c:	910183ea 	add	x10, sp, #0x60
 860:	910243e8 	add	x8, sp, #0x90
 864:	910243eb 	add	x11, sp, #0x90
 868:	a903a3e0 	stp	x0, x8, [sp, #56]
    tfp_format(&s,putcp,fmt,va);
 86c:	90000008 	adrp	x8, 0 <_boot_entry>
    va_start(va,fmt);
 870:	a904abeb 	stp	x11, x10, [sp, #72]
    tfp_format(&s,putcp,fmt,va);
 874:	9100e3e0 	add	x0, sp, #0x38
    va_start(va,fmt);
 878:	290b7fe9 	stp	w9, wzr, [sp, #88]
    tfp_format(&s,putcp,fmt,va);
 87c:	a9442fea 	ldp	x10, x11, [sp, #64]
 880:	a9012fea 	stp	x10, x11, [sp, #16]
 884:	a9452fea 	ldp	x10, x11, [sp, #80]
 888:	a9022fea 	stp	x10, x11, [sp, #32]
    {
 88c:	a9060fe2 	stp	x2, x3, [sp, #96]
    tfp_format(&s,putcp,fmt,va);
 890:	aa0103e2 	mov	x2, x1
 894:	910043e3 	add	x3, sp, #0x10
 898:	910e4101 	add	x1, x8, #0x390
    {
 89c:	a90717e4 	stp	x4, x5, [sp, #112]
 8a0:	a9081fe6 	stp	x6, x7, [sp, #128]
    tfp_format(&s,putcp,fmt,va);
 8a4:	97fffef7 	bl	480 <tfp_format>
    *(*((char**)p))++ = c;
 8a8:	f9401fe0 	ldr	x0, [sp, #56]
 8ac:	3900001f 	strb	wzr, [x0]
    putcp(&s,0);
    va_end(va);
    }
 8b0:	a8c97bfd 	ldp	x29, x30, [sp], #144
 8b4:	d65f03c0 	ret
	...

00000000000008c0 <delay>:
#include "utils.h"

void delay(uint32 cycles){
    asm volatile("loop : subs %0, %0, #1\n\t"
 8c0:	f1000400 	subs	x0, x0, #0x1
 8c4:	54ffffe1 	b.ne	8c0 <delay>  // b.any
                  "bne loop"
                  : "=r"(cycles)
                  :
                  : "cc");
}
 8c8:	d65f03c0 	ret
 8cc:	d503201f 	nop

00000000000008d0 <get_core_id>:

int get_core_id(){
    int core_id;
    asm volatile("mrs %0, mpidr_el1\n\t"
 8d0:	d53800a0 	mrs	x0, mpidr_el1
 8d4:	92401c00 	and	x0, x0, #0xff
                 "and %0, %0, #0xFF\n\t"
                  :"=r"(core_id));
    return core_id;
}
 8d8:	d65f03c0 	ret
 8dc:	d503201f 	nop

00000000000008e0 <get_el>:

int get_el(){
    int el;
    asm volatile("mrs %0, CurrentEL\n\t"
 8e0:	d5384240 	mrs	x0, currentel
 8e4:	d342fc00 	lsr	x0, x0, #2
                 "lsr %0, %0, #2\n\t"
                  :"=r"(el));
    return el;
}
 8e8:	d65f03c0 	ret
